target datalayout = "e-m:e-p270:32:32-p271:32:32-p272:64:64-i64:64-i128:128-f80:128-n8:16:32:64-S128"
target triple = "x86_64-pc-linux-gnu"

%struct.extra_field = type <{ i32, i8 }>

@.str.224 = private unnamed_addr constant [42 x i8] c"egg_parse_comment_headers: Invalid args!\0A\00", align 1
@.str.225 = private unnamed_addr constant [67 x i8] c"egg_parse_comment_header: failed to convert codepage \220\22 to UTF-8\0A\00", align 1
@.str.226 = private unnamed_addr constant [62 x i8] c"egg_parse_comment_header: failed to allocate comment buffer.\0A\00", align 1
@.str.227 = private unnamed_addr constant [48 x i8] c"egg_parse_comment_header: comment:          %s\0A\00", align 1

; Function Attrs: nounwind uwtable
define internal i32 @egg_parse_comment_header(ptr noundef %0, i64 noundef %1, ptr noundef %2, ptr noundef %3) #0 {
  %5 = alloca i32, align 4
  %6 = alloca ptr, align 8
  %7 = alloca i64, align 8
  %8 = alloca ptr, align 8
  %9 = alloca ptr, align 8
  %10 = alloca i32, align 4
  %11 = alloca ptr, align 8
  %12 = alloca i64, align 8
  store ptr %0, ptr %6, align 8
  store i64 %1, ptr %7, align 8
  store ptr %2, ptr %8, align 8
  store ptr %3, ptr %9, align 8
  store i32 27, ptr %10, align 4
  store ptr null, ptr %11, align 8
  store i64 0, ptr %12, align 8
  %13 = load ptr, ptr %6, align 8
  %14 = icmp ne ptr %13, null
  br i1 %14, label %15, label %24

15:                                               ; preds = %4
  %16 = load i64, ptr %7, align 8
  %17 = icmp eq i64 0, %16
  br i1 %17, label %24, label %18

18:                                               ; preds = %15
  %19 = load ptr, ptr %8, align 8
  %20 = icmp ne ptr %19, null
  br i1 %20, label %21, label %24

21:                                               ; preds = %18
  %22 = load ptr, ptr %9, align 8
  %23 = icmp ne ptr %22, null
  br i1 %23, label %25, label %24

24:                                               ; preds = %21, %18, %15, %4
  call void (ptr, ...) @cli_errmsg(ptr noundef @.str.224)
  store i32 3, ptr %5, align 4
  br label %67

25:                                               ; preds = %21
  %26 = load ptr, ptr %9, align 8
  store ptr null, ptr %26, align 8
  %27 = load ptr, ptr %8, align 8
  %28 = getelementptr inbounds %struct.extra_field, ptr %27, i32 0, i32 1
  %29 = load i8, ptr %28, align 1
  %30 = zext i8 %29 to i32
  %31 = and i32 %30, 4
  %32 = icmp ne i32 %31, 0
  br i1 %32, label %33, label %34

33:                                               ; preds = %25
  store i32 7, ptr %10, align 4
  br label %60

34:                                               ; preds = %25
  %35 = load ptr, ptr %8, align 8
  %36 = getelementptr inbounds %struct.extra_field, ptr %35, i32 0, i32 1
  %37 = load i8, ptr %36, align 1
  %38 = zext i8 %37 to i32
  %39 = and i32 %38, 8
  %40 = icmp ne i32 %39, 0
  br i1 %40, label %41, label %48

41:                                               ; preds = %34
  %42 = load ptr, ptr %6, align 8
  %43 = load i64, ptr %7, align 8
  %44 = call i32 @cli_codepage_to_utf8(ptr noundef %42, i64 noundef %43, i16 noundef zeroext -535, ptr noundef %11, ptr noundef %12)
  %45 = icmp ne i32 0, %44
  br i1 %45, label %46, label %47

46:                                               ; preds = %41
  call void (ptr, ...) @cli_dbgmsg(ptr noundef @.str.225)
  store i32 7, ptr %10, align 4
  br label %60

47:                                               ; preds = %41
  br label %56

48:                                               ; preds = %34
  %49 = load ptr, ptr %6, align 8
  %50 = load i64, ptr %7, align 8
  %51 = call noalias ptr @strndup(ptr noundef %49, i64 noundef %50) #7
  store ptr %51, ptr %11, align 8
  %52 = load ptr, ptr %11, align 8
  %53 = icmp eq ptr null, %52
  br i1 %53, label %54, label %55

54:                                               ; preds = %48
  call void (ptr, ...) @cli_dbgmsg(ptr noundef @.str.226)
  store i32 20, ptr %10, align 4
  br label %60

55:                                               ; preds = %48
  br label %56

56:                                               ; preds = %55, %47
  %57 = load ptr, ptr %11, align 8
  call void (ptr, ...) @cli_dbgmsg(ptr noundef @.str.227, ptr noundef %57)
  %58 = load ptr, ptr %11, align 8
  %59 = load ptr, ptr %9, align 8
  store ptr %58, ptr %59, align 8
  store ptr null, ptr %11, align 8
  store i32 0, ptr %10, align 4
  br label %60

60:                                               ; preds = %56, %54, %46, %33
  %61 = load ptr, ptr %11, align 8
  %62 = icmp ne ptr null, %61
  br i1 %62, label %63, label %65

63:                                               ; preds = %60
  %64 = load ptr, ptr %11, align 8
  call void @free(ptr noundef %64) #7
  br label %65

65:                                               ; preds = %63, %60
  %66 = load i32, ptr %10, align 4
  store i32 %66, ptr %5, align 4
  br label %67

67:                                               ; preds = %65, %24
  %68 = load i32, ptr %5, align 4
  ret i32 %68
}