; Function Attrs: nounwind uwtable
define internal fastcc noundef i32 @egg_parse_comment_header(ptr noundef %0, i64 noundef %1, ptr nocapture noundef readonly %2, ptr noundef writeonly %3) unnamed_addr #1 {
  %5 = alloca ptr, align 8
  %6 = alloca i64, align 8
  store ptr null, ptr %5, align 8
  store i64 0, ptr %6, align 8
  %7 = icmp ne i64 %1, 0
  %8 = icmp ne ptr %3, null
  %or.cond5 = and i1 %7, %8
  br i1 %or.cond5, label %10, label %9

9:                                                ; preds = %4
  tail call void (ptr, ...) @cli_errmsg(ptr noundef nonnull @.str.224) #11
  br label %.thread28

10:                                               ; preds = %4
  store ptr null, ptr %3, align 8
  %11 = getelementptr inbounds i8, ptr %2, i64 4
  %12 = load i8, ptr %11, align 1
  %13 = zext i8 %12 to i32
  %14 = and i32 %13, 4
  %.not = icmp eq i32 %14, 0
  br i1 %.not, label %15, label %.thread28

15:                                               ; preds = %10
  %16 = and i32 %13, 8
  %.not22 = icmp eq i32 %16, 0
  br i1 %.not22, label %19, label %17

17:                                               ; preds = %15
  %18 = call i32 @cli_codepage_to_utf8(ptr noundef %0, i64 noundef %1, i16 noundef zeroext -535, ptr noundef nonnull %5, ptr noundef nonnull %6) #11
  %.not23 = icmp eq i32 %18, 0
  br i1 %.not23, label %..thread_crit_edge, label %25

..thread_crit_edge:                               ; preds = %17
  %.pre = load ptr, ptr %5, align 8
  br label %.thread

19:                                               ; preds = %15
  %20 = tail call noalias ptr @strndup(ptr noundef %0, i64 noundef %1) #11
  store ptr %20, ptr %5, align 8
  %21 = icmp eq ptr %20, null
  br i1 %21, label %22, label %.thread

22:                                               ; preds = %19
  tail call void (ptr, ...) @cli_dbgmsg(ptr noundef nonnull @.str.226) #11
  br label %.thread28

.thread:                                          ; preds = %..thread_crit_edge, %19
  %23 = phi ptr [ %.pre, %..thread_crit_edge ], [ %20, %19 ]
  call void (ptr, ...) @cli_dbgmsg(ptr noundef nonnull @.str.227, ptr noundef %23) #11
  %24 = load ptr, ptr %5, align 8
  store ptr %24, ptr %3, align 8
  br label %.thread28

25:                                               ; preds = %17
  call void (ptr, ...) @cli_dbgmsg(ptr noundef nonnull @.str.225) #11
  %.pr.pre = load ptr, ptr %5, align 8
  %.not24 = icmp eq ptr %.pr.pre, null
  br i1 %.not24, label %.thread28, label %26

26:                                               ; preds = %25
  call void @free(ptr noundef nonnull %.pr.pre) #11
  br label %.thread28

.thread28:                                        ; preds = %22, %10, %.thread, %25, %26, %9
  %.018 = phi i32 [ 3, %9 ], [ 7, %26 ], [ 7, %25 ], [ 0, %.thread ], [ 20, %22 ], [ 7, %10 ]
  ret i32 %.018
}